target datalayout = "e-m:e-p270:32:32-p271:32:32-p272:64:64-i64:64-i128:128-f80:128-n8:16:32:64-S128"
target triple = "x86_64-pc-linux-gnu"

@verbose = internal global i32 0, align 4
@testctx = internal global ptr null, align 8
@nullprov = internal global ptr null, align 8
@deflprov = internal global ptr null, align 8
@.str.17 = private unnamed_addr constant [8 x i8] c"default\00", align 1
@.str.18 = private unnamed_addr constant [17 x i8] c"export_only_test\00", align 1
@.str.19 = private unnamed_addr constant [47 x i8] c"x25519kdfsha256_hkdfsha256_aes128gcm_base_test\00", align 1
@.str.20 = private unnamed_addr constant [46 x i8] c"x25519kdfsha256_hkdfsha256_aes128gcm_psk_test\00", align 1
@.str.21 = private unnamed_addr constant [45 x i8] c"P256kdfsha256_hkdfsha256_aes128gcm_base_test\00", align 1
@.str.22 = private unnamed_addr constant [17 x i8] c"test_hpke_export\00", align 1
@.str.23 = private unnamed_addr constant [23 x i8] c"test_hpke_modes_suites\00", align 1
@.str.24 = private unnamed_addr constant [21 x i8] c"test_hpke_suite_strs\00", align 1
@.str.25 = private unnamed_addr constant [17 x i8] c"test_hpke_grease\00", align 1
@.str.26 = private unnamed_addr constant [15 x i8] c"test_hpke_ikms\00", align 1
@.str.27 = private unnamed_addr constant [24 x i8] c"test_hpke_random_suites\00", align 1
@.str.28 = private unnamed_addr constant [19 x i8] c"test_hpke_oddcalls\00", align 1
@.str.29 = private unnamed_addr constant [21 x i8] c"test_hpke_compressed\00", align 1
@.str.30 = private unnamed_addr constant [21 x i8] c"test_hpke_noncereuse\00", align 1

; Function Attrs: nounwind uwtable
define dso_local i32 @setup_tests() #0 {
  %1 = alloca i32, align 4
  %2 = alloca i32, align 4
  %3 = alloca i32, align 4
  call void @llvm.lifetime.start.p0(i64 4, ptr %2) #7
  br label %4

4:                                                ; preds = %12, %0
  %5 = call i32 @opt_next()
  store i32 %5, ptr %2, align 4, !tbaa !4
  %6 = icmp ne i32 %5, 0
  br i1 %6, label %7, label %13

7:                                                ; preds = %4
  %8 = load i32, ptr %2, align 4, !tbaa !4
  switch i32 %8, label %11 [
    i32 1, label %9
    i32 500, label %10
    i32 501, label %10
    i32 502, label %10
    i32 503, label %10
    i32 504, label %10
    i32 505, label %10
  ]

9:                                                ; preds = %7
  store i32 1, ptr @verbose, align 4, !tbaa !4
  br label %12

10:                                               ; preds = %7, %7, %7, %7, %7, %7
  br label %12

11:                                               ; preds = %7
  store i32 0, ptr %1, align 4
  store i32 1, ptr %3, align 4
  br label %18

12:                                               ; preds = %10, %9
  br label %4, !llvm.loop !8

13:                                               ; preds = %4
  %14 = call i32 @test_get_libctx(ptr noundef @testctx, ptr noundef @nullprov, ptr noundef null, ptr noundef @deflprov, ptr noundef @.str.17)
  %15 = icmp ne i32 %14, 0
  br i1 %15, label %17, label %16

16:                                               ; preds = %13
  store i32 0, ptr %1, align 4
  store i32 1, ptr %3, align 4
  br label %18

17:                                               ; preds = %13
  call void @add_test(ptr noundef @.str.18, ptr noundef @export_only_test)
  call void @add_test(ptr noundef @.str.19, ptr noundef @x25519kdfsha256_hkdfsha256_aes128gcm_base_test)
  call void @add_test(ptr noundef @.str.20, ptr noundef @x25519kdfsha256_hkdfsha256_aes128gcm_psk_test)
  call void @add_test(ptr noundef @.str.21, ptr noundef @P256kdfsha256_hkdfsha256_aes128gcm_base_test)
  call void @add_test(ptr noundef @.str.22, ptr noundef @test_hpke_export)
  call void @add_test(ptr noundef @.str.23, ptr noundef @test_hpke_modes_suites)
  call void @add_test(ptr noundef @.str.24, ptr noundef @test_hpke_suite_strs)
  call void @add_test(ptr noundef @.str.25, ptr noundef @test_hpke_grease)
  call void @add_test(ptr noundef @.str.26, ptr noundef @test_hpke_ikms)
  call void @add_test(ptr noundef @.str.27, ptr noundef @test_hpke_random_suites)
  call void @add_test(ptr noundef @.str.28, ptr noundef @test_hpke_oddcalls)
  call void @add_test(ptr noundef @.str.29, ptr noundef @test_hpke_compressed)
  call void @add_test(ptr noundef @.str.30, ptr noundef @test_hpke_noncereuse)
  store i32 1, ptr %1, align 4
  store i32 1, ptr %3, align 4
  br label %18

18:                                               ; preds = %17, %16, %11
  call void @llvm.lifetime.end.p0(i64 4, ptr %2) #7
  %19 = load i32, ptr %1, align 4
  ret i32 %19
}