; Function Attrs: nounwind uwtable
define dso_local range(i32 0, 2) i32 @setup_tests() local_unnamed_addr #1 {
  br label %1

1:                                                ; preds = %.backedge, %0
  %2 = tail call i32 @opt_next() #7
  switch i32 %2, label %.loopexit [
    i32 0, label %4
    i32 1, label %3
    i32 500, label %.backedge
    i32 501, label %.backedge
    i32 502, label %.backedge
    i32 503, label %.backedge
    i32 504, label %.backedge
    i32 505, label %.backedge
  ]

.backedge:                                        ; preds = %1, %1, %1, %1, %1, %1, %3
  br label %1, !llvm.loop !4

3:                                                ; preds = %1
  store i1 true, ptr @verbose, align 4
  br label %.backedge

4:                                                ; preds = %1
  %5 = tail call i32 @test_get_libctx(ptr noundef nonnull @testctx, ptr noundef nonnull @nullprov, ptr noundef null, ptr noundef nonnull @deflprov, ptr noundef nonnull @.str.17) #7
  %.not3 = icmp eq i32 %5, 0
  br i1 %.not3, label %.loopexit, label %6

6:                                                ; preds = %4
  tail call void @add_test(ptr noundef nonnull @.str.18, ptr noundef nonnull @export_only_test) #7
  tail call void @add_test(ptr noundef nonnull @.str.19, ptr noundef nonnull @x25519kdfsha256_hkdfsha256_aes128gcm_base_test) #7
  tail call void @add_test(ptr noundef nonnull @.str.20, ptr noundef nonnull @x25519kdfsha256_hkdfsha256_aes128gcm_psk_test) #7
  tail call void @add_test(ptr noundef nonnull @.str.21, ptr noundef nonnull @P256kdfsha256_hkdfsha256_aes128gcm_base_test) #7
  tail call void @add_test(ptr noundef nonnull @.str.22, ptr noundef nonnull @test_hpke_export) #7
  tail call void @add_test(ptr noundef nonnull @.str.23, ptr noundef nonnull @test_hpke_modes_suites) #7
  tail call void @add_test(ptr noundef nonnull @.str.24, ptr noundef nonnull @test_hpke_suite_strs) #7
  tail call void @add_test(ptr noundef nonnull @.str.25, ptr noundef nonnull @test_hpke_grease) #7
  tail call void @add_test(ptr noundef nonnull @.str.26, ptr noundef nonnull @test_hpke_ikms) #7
  tail call void @add_test(ptr noundef nonnull @.str.27, ptr noundef nonnull @test_hpke_random_suites) #7
  tail call void @add_test(ptr noundef nonnull @.str.28, ptr noundef nonnull @test_hpke_oddcalls) #7
  tail call void @add_test(ptr noundef nonnull @.str.29, ptr noundef nonnull @test_hpke_compressed) #7
  tail call void @add_test(ptr noundef nonnull @.str.30, ptr noundef nonnull @test_hpke_noncereuse) #7
  br label %.loopexit

.loopexit:                                        ; preds = %1, %4, %6
  %.0 = phi i32 [ 1, %6 ], [ 0, %4 ], [ 0, %1 ]
  ret i32 %.0
}